target datalayout = "e-m:e-p270:32:32-p271:32:32-p272:64:64-i64:64-i128:128-f80:128-n8:16:32:64-S128"
target triple = "x86_64-pc-linux-gnu"

@.str.13 = private unnamed_addr constant [10 x i8] c"on-demand\00", align 1
@.str.14 = private unnamed_addr constant [20 x i8] c"bad %s argument: %s\00", align 1
@.str.15 = private unnamed_addr constant [6 x i8] c"check\00", align 1
@.str.16 = private unnamed_addr constant [5 x i8] c"only\00", align 1

; Function Attrs: nounwind uwtable
define internal i32 @parse_push_recurse(ptr noundef %0, ptr noundef %1, i32 noundef %2) #0 {
  %4 = alloca i32, align 4
  %5 = alloca ptr, align 8
  %6 = alloca ptr, align 8
  %7 = alloca i32, align 4
  store ptr %0, ptr %5, align 8, !tbaa !13
  store ptr %1, ptr %6, align 8, !tbaa !13
  store i32 %2, ptr %7, align 4, !tbaa !17
  %8 = load ptr, ptr %6, align 8, !tbaa !13
  %9 = call i32 @git_parse_maybe_bool(ptr noundef %8)
  switch i32 %9, label %18 [
    i32 1, label %10
    i32 0, label %17
  ]

10:                                               ; preds = %3
  %11 = load i32, ptr %7, align 4, !tbaa !17
  %12 = icmp ne i32 %11, 0
  br i1 %12, label %13, label %16

13:                                               ; preds = %10
  %14 = load ptr, ptr %5, align 8, !tbaa !13
  %15 = load ptr, ptr %6, align 8, !tbaa !13
  call void (ptr, ...) @die(ptr noundef @.str.14, ptr noundef %14, ptr noundef %15) #11
  unreachable

16:                                               ; preds = %10
  store i32 -3, ptr %4, align 4
  br label %40

17:                                               ; preds = %3
  store i32 0, ptr %4, align 4
  br label %40

18:                                               ; preds = %3
  %19 = load ptr, ptr %6, align 8, !tbaa !13
  %20 = call i32 @strcmp(ptr noundef %19, ptr noundef @.str.13) #10
  %21 = icmp ne i32 %20, 0
  br i1 %21, label %23, label %22

22:                                               ; preds = %18
  store i32 -1, ptr %4, align 4
  br label %40

23:                                               ; preds = %18
  %24 = load ptr, ptr %6, align 8, !tbaa !13
  %25 = call i32 @strcmp(ptr noundef %24, ptr noundef @.str.15) #10
  %26 = icmp ne i32 %25, 0
  br i1 %26, label %28, label %27

27:                                               ; preds = %23
  store i32 -4, ptr %4, align 4
  br label %40

28:                                               ; preds = %23
  %29 = load ptr, ptr %6, align 8, !tbaa !13
  %30 = call i32 @strcmp(ptr noundef %29, ptr noundef @.str.16) #10
  %31 = icmp ne i32 %30, 0
  br i1 %31, label %33, label %32

32:                                               ; preds = %28
  store i32 -5, ptr %4, align 4
  br label %40

33:                                               ; preds = %28
  %34 = load i32, ptr %7, align 4, !tbaa !17
  %35 = icmp ne i32 %34, 0
  br i1 %35, label %36, label %39

36:                                               ; preds = %33
  %37 = load ptr, ptr %5, align 8, !tbaa !13
  %38 = load ptr, ptr %6, align 8, !tbaa !13
  call void (ptr, ...) @die(ptr noundef @.str.14, ptr noundef %37, ptr noundef %38) #11
  unreachable

39:                                               ; preds = %33
  store i32 -3, ptr %4, align 4
  br label %40

40:                                               ; preds = %39, %32, %27, %22, %17, %16
  %41 = load i32, ptr %4, align 4
  ret i32 %41
}

; Function Attrs: nounwind uwtable
define dso_local i32 @parse_push_recurse_submodules_arg(ptr noundef %0, ptr noundef %1) #0 {
  %3 = alloca ptr, align 8
  %4 = alloca ptr, align 8
  store ptr %0, ptr %3, align 8, !tbaa !13
  store ptr %1, ptr %4, align 8, !tbaa !13
  %5 = load ptr, ptr %3, align 8, !tbaa !13
  %6 = load ptr, ptr %4, align 8, !tbaa !13
  %7 = call i32 @parse_push_recurse(ptr noundef %5, ptr noundef %6, i32 noundef 1)
  ret i32 %7
}