; Function Attrs: nounwind uwtable
define dso_local range(i32 -5, 1) i32 @parse_push_recurse_submodules_arg(ptr noundef %0, ptr noundef %1) local_unnamed_addr #0 {
  %3 = tail call i32 @git_parse_maybe_bool(ptr noundef %1) #15
  switch i32 %3, label %5 [
    i32 1, label %4
    i32 0, label %parse_push_recurse.exit
  ]

4:                                                ; preds = %2
  tail call void (ptr, ...) @die(ptr noundef nonnull @.str.14, ptr noundef %0, ptr noundef %1) #17
  unreachable

5:                                                ; preds = %2
  %6 = tail call i32 @strcmp(ptr noundef nonnull dereferenceable(1) %1, ptr noundef nonnull dereferenceable(10) @.str.13) #16
  %.not.i = icmp eq i32 %6, 0
  br i1 %.not.i, label %parse_push_recurse.exit, label %7

7:                                                ; preds = %5
  %8 = tail call i32 @strcmp(ptr noundef nonnull dereferenceable(1) %1, ptr noundef nonnull dereferenceable(6) @.str.15) #16
  %.not10.i = icmp eq i32 %8, 0
  br i1 %.not10.i, label %parse_push_recurse.exit, label %9

9:                                                ; preds = %7
  %10 = tail call i32 @strcmp(ptr noundef nonnull dereferenceable(1) %1, ptr noundef nonnull dereferenceable(5) @.str.16) #16
  %.not11.i = icmp eq i32 %10, 0
  br i1 %.not11.i, label %parse_push_recurse.exit, label %11

11:                                               ; preds = %9
  tail call void (ptr, ...) @die(ptr noundef nonnull @.str.14, ptr noundef %0, ptr noundef nonnull %1) #17
  unreachable

parse_push_recurse.exit:                          ; preds = %2, %5, %7, %9
  %.0.i = phi i32 [ %3, %2 ], [ -1, %5 ], [ -4, %7 ], [ -5, %9 ]
  ret i32 %.0.i
}